; Function Attrs: nounwind uwtable
define dso_local void @bioSubmitJob(i32 noundef %0, ptr noundef initializes((0, 4)) %1) local_unnamed_addr #0 {
  store i32 %0, ptr %1, align 8, !tbaa !61
  %3 = sext i32 %0 to i64
  %4 = getelementptr inbounds [7 x i32], ptr @bio_job_to_worker, i64 0, i64 %3
  %5 = load i32, ptr %4, align 4, !tbaa !41
  %6 = zext i32 %5 to i64
  %7 = getelementptr inbounds nuw [3 x %union.pthread_mutex_t], ptr @bio_mutex, i64 0, i64 %6
  %8 = tail call i32 @pthread_mutex_lock(ptr noundef nonnull %7) #11
  %9 = getelementptr inbounds nuw [3 x ptr], ptr @bio_jobs, i64 0, i64 %6
  %10 = load ptr, ptr %9, align 8, !tbaa !5
  %11 = tail call ptr @listAddNodeTail(ptr noundef %10, ptr noundef nonnull %1) #11
  %12 = getelementptr inbounds [7 x i64], ptr @bio_jobs_counter, i64 0, i64 %3
  %13 = load i64, ptr %12, align 8, !tbaa !43
  %14 = add i64 %13, 1
  store i64 %14, ptr %12, align 8, !tbaa !43
  %15 = getelementptr inbounds nuw [3 x %union.pthread_cond_t], ptr @bio_newjob_cond, i64 0, i64 %6
  %16 = tail call i32 @pthread_cond_signal(ptr noundef nonnull %15) #11
  %17 = tail call i32 @pthread_mutex_unlock(ptr noundef nonnull %7) #11
  ret void
}